; Function Attrs: nofree nounwind uwtable
define i32 @OutFile_Open(ptr noundef writeonly captures(none) initializes((0, 8)) %0, ptr noundef readonly captures(none) %1) local_unnamed_addr #1 {
  %3 = tail call noalias ptr @fopen(ptr noundef readonly %1, ptr noundef nonnull @.str)
  store ptr %3, ptr %0, align 8, !tbaa !3
  %.not3.i = icmp eq ptr %3, null
  br i1 %.not3.i, label %4, label %File_Open.exit

4:                                                ; preds = %2
  %5 = tail call ptr @__errno_location() #5
  %6 = load i32, ptr %5, align 4, !tbaa !10
  br label %File_Open.exit

File_Open.exit:                                   ; preds = %2, %4
  %7 = phi i32 [ %6, %4 ], [ 0, %2 ]
  ret i32 %7
}